target datalayout = "e-m:e-p270:32:32-p271:32:32-p272:64:64-i64:64-i128:128-f80:128-n8:16:32:64-S128"
target triple = "x86_64-pc-linux-gnu"

%"class.ncnn::Pooling" = type <{ %"class.ncnn::Layer", i32, i32, i32, i32, i32, i32, i32, i32, i32, i32, i32, i32, i32, i32, i32, [4 x i8] }>
%"class.ncnn::Layer" = type { ptr, i8, i8, i8, i8, i8, i8, i8, i8, i8, i8, i8, i8, i8, i8, i8, i8, i8, i8, i8, i8, i32, ptr, i32, %"class.std::__cxx11::basic_string", %"class.std::__cxx11::basic_string", %"class.std::vector", %"class.std::vector", %"class.std::vector.3", %"class.std::vector.3" }
%"class.std::__cxx11::basic_string" = type { %"struct.std::__cxx11::basic_string<char>::_Alloc_hider", i64, %union.anon }
%"struct.std::__cxx11::basic_string<char>::_Alloc_hider" = type { ptr }
%union.anon = type { i64, [8 x i8] }
%"class.std::vector" = type { %"struct.std::_Vector_base" }
%"struct.std::_Vector_base" = type { %"struct.std::_Vector_base<int, std::allocator<int>>::_Vector_impl" }
%"struct.std::_Vector_base<int, std::allocator<int>>::_Vector_impl" = type { %"struct.std::_Vector_base<int, std::allocator<int>>::_Vector_impl_data" }
%"struct.std::_Vector_base<int, std::allocator<int>>::_Vector_impl_data" = type { ptr, ptr, ptr }
%"class.std::vector.3" = type { %"struct.std::_Vector_base.4" }
%"struct.std::_Vector_base.4" = type { %"struct.std::_Vector_base<ncnn::Mat, std::allocator<ncnn::Mat>>::_Vector_impl" }
%"struct.std::_Vector_base<ncnn::Mat, std::allocator<ncnn::Mat>>::_Vector_impl" = type { %"struct.std::_Vector_base<ncnn::Mat, std::allocator<ncnn::Mat>>::_Vector_impl_data" }
%"struct.std::_Vector_base<ncnn::Mat, std::allocator<ncnn::Mat>>::_Vector_impl_data" = type { ptr, ptr, ptr }

; Function Attrs: mustprogress nounwind uwtable
define hidden noundef i32 @_ZN4ncnn18Pooling_x86_avx51215create_pipelineERKNS_6OptionE(ptr noundef nonnull align 8 dereferenceable(268) %0, ptr noundef nonnull align 8 dereferenceable(64) %1) unnamed_addr #3 align 2 {
  %3 = alloca ptr, align 8
  %4 = alloca ptr, align 8
  store ptr %0, ptr %3, align 8, !tbaa !4
  store ptr %1, ptr %4, align 8, !tbaa !9
  %5 = load ptr, ptr %3, align 8
  %6 = getelementptr inbounds nuw %"class.ncnn::Pooling", ptr %5, i32 0, i32 13
  %7 = load i32, ptr %6, align 8, !tbaa !11
  %8 = icmp ne i32 %7, 0
  br i1 %8, label %9, label %15

9:                                                ; preds = %2
  %10 = getelementptr inbounds nuw %"class.ncnn::Layer", ptr %5, i32 0, i32 4
  store i8 0, ptr %10, align 1, !tbaa !30
  %11 = getelementptr inbounds nuw %"class.ncnn::Layer", ptr %5, i32 0, i32 5
  store i8 0, ptr %11, align 4, !tbaa !31
  %12 = getelementptr inbounds nuw %"class.ncnn::Layer", ptr %5, i32 0, i32 6
  store i8 0, ptr %12, align 1, !tbaa !32
  %13 = getelementptr inbounds nuw %"class.ncnn::Layer", ptr %5, i32 0, i32 7
  store i8 0, ptr %13, align 2, !tbaa !33
  %14 = getelementptr inbounds nuw %"class.ncnn::Layer", ptr %5, i32 0, i32 9
  store i8 0, ptr %14, align 8, !tbaa !34
  br label %15

15:                                               ; preds = %9, %2
  ret i32 0
}